target datalayout = "e-m:e-p270:32:32-p271:32:32-p272:64:64-i64:64-i128:128-f80:128-n8:16:32:64-S128"
target triple = "x86_64-pc-linux-gnu"

%struct.png_struct_def = type { [1 x %struct.__jmp_buf_tag], ptr, ptr, i64, ptr, ptr, ptr, ptr, ptr, ptr, ptr, ptr, ptr, i8, i8, i32, i32, i32, i32, %struct.z_stream_s, ptr, i32, i32, i32, i32, i32, i32, i32, i32, i32, i32, i32, i32, i32, i32, i32, i32, i32, i32, i32, i32, i32, i64, i32, i32, i32, ptr, ptr, ptr, ptr, i64, i32, i32, ptr, i16, i32, i16, i8, i8, i8, i8, i8, i8, i8, i8, i8, i8, i8, i8, i8, i8, i8, i16, i8, i32, %struct.png_color_16_struct, %struct.png_color_16_struct, ptr, i32, i32, %struct.png_xy, i32, i32, i32, i32, i32, ptr, ptr, ptr, ptr, ptr, ptr, %struct.png_color_8_struct, %struct.png_color_8_struct, ptr, %struct.png_color_16_struct, ptr, ptr, ptr, ptr, ptr, ptr, ptr, ptr, ptr, i32, i32, i64, i64, i64, i64, i32, i32, ptr, ptr, i32, [29 x i8], i32, ptr, ptr, i32, i32, ptr, i8, i8, i16, i16, ptr, i32, i8, ptr, ptr, ptr, ptr, ptr, ptr, ptr, i8, i32, i32, i32, i64, %struct.png_unknown_chunk_t, i64, ptr, i64, i32, i32, ptr, [4 x ptr] }
%struct.__jmp_buf_tag = type { [8 x i64], i32, %struct.__sigset_t }
%struct.__sigset_t = type { [16 x i64] }
%struct.z_stream_s = type { ptr, i32, i64, ptr, i32, i64, ptr, ptr, ptr, ptr, ptr, i32, i64, i64 }
%struct.png_xy = type { i32, i32, i32, i32, i32, i32, i32, i32 }
%struct.png_color_8_struct = type { i8, i8, i8, i8, i8 }
%struct.png_color_16_struct = type { i8, i16, i16, i16, i16 }
%struct.png_unknown_chunk_t = type { [5 x i8], ptr, i64, i8 }

@.str.30 = private unnamed_addr constant [8 x i8] c"invalid\00", align 1
@.str.43 = private unnamed_addr constant [11 x i8] c"bad length\00", align 1

; Function Attrs: nounwind uwtable
define void @png_crc_read(ptr noalias noundef %0, ptr noundef %1, i32 noundef %2) #0 {
  %4 = alloca ptr, align 8
  %5 = alloca ptr, align 8
  %6 = alloca i32, align 4
  store ptr %0, ptr %4, align 8, !tbaa !3
  store ptr %1, ptr %5, align 8, !tbaa !8
  store i32 %2, ptr %6, align 4, !tbaa !11
  %7 = load ptr, ptr %4, align 8, !tbaa !3
  %8 = icmp eq ptr %7, null
  br i1 %8, label %9, label %10

9:                                                ; preds = %3
  br label %19

10:                                               ; preds = %3
  %11 = load ptr, ptr %4, align 8, !tbaa !3
  %12 = load ptr, ptr %5, align 8, !tbaa !8
  %13 = load i32, ptr %6, align 4, !tbaa !11
  %14 = zext i32 %13 to i64
  call void @png_read_data(ptr noundef %11, ptr noundef %12, i64 noundef %14)
  %15 = load ptr, ptr %4, align 8, !tbaa !3
  %16 = load ptr, ptr %5, align 8, !tbaa !8
  %17 = load i32, ptr %6, align 4, !tbaa !11
  %18 = zext i32 %17 to i64
  call void @png_calculate_crc(ptr noundef %15, ptr noundef %16, i64 noundef %18)
  br label %19

19:                                               ; preds = %10, %9
  ret void
}

; Function Attrs: nounwind uwtable
define i32 @png_crc_finish(ptr noalias noundef %0, i32 noundef %1) #0 {
  %3 = alloca ptr, align 8
  %4 = alloca i32, align 4
  store ptr %0, ptr %3, align 8, !tbaa !3
  store i32 %1, ptr %4, align 4, !tbaa !11
  %5 = load ptr, ptr %3, align 8, !tbaa !3
  %6 = load i32, ptr %4, align 4, !tbaa !11
  %7 = call i32 @png_crc_finish_critical(ptr noundef %5, i32 noundef %6, i32 noundef 0)
  ret i32 %7
}

; Function Attrs: nounwind uwtable
define internal i32 @png_handle_sBIT(ptr noalias noundef %0, ptr noalias noundef %1, i32 noundef %2) #0 {
  %4 = alloca i32, align 4
  %5 = alloca ptr, align 8
  %6 = alloca ptr, align 8
  %7 = alloca i32, align 4
  %8 = alloca i32, align 4
  %9 = alloca i32, align 4
  %10 = alloca i8, align 1
  %11 = alloca [4 x i8], align 1
  %12 = alloca i32, align 4
  store ptr %0, ptr %5, align 8, !tbaa !3
  store ptr %1, ptr %6, align 8, !tbaa !13
  store i32 %2, ptr %7, align 4, !tbaa !11
  call void @llvm.lifetime.start.p0(i64 4, ptr %8) #7
  call void @llvm.lifetime.start.p0(i64 4, ptr %9) #7
  call void @llvm.lifetime.start.p0(i64 1, ptr %10) #7
  call void @llvm.lifetime.start.p0(i64 4, ptr %11) #7
  %13 = load ptr, ptr %5, align 8, !tbaa !3
  %14 = getelementptr inbounds nuw %struct.png_struct_def, ptr %13, i32 0, i32 62
  %15 = load i8, ptr %14, align 1, !tbaa !102
  %16 = zext i8 %15 to i32
  %17 = icmp eq i32 %16, 3
  br i1 %17, label %18, label %19

18:                                               ; preds = %3
  store i32 3, ptr %8, align 4, !tbaa !11
  store i8 8, ptr %10, align 1, !tbaa !10
  br label %27

19:                                               ; preds = %3
  %20 = load ptr, ptr %5, align 8, !tbaa !3
  %21 = getelementptr inbounds nuw %struct.png_struct_def, ptr %20, i32 0, i32 66
  %22 = load i8, ptr %21, align 1, !tbaa !114
  %23 = zext i8 %22 to i32
  store i32 %23, ptr %8, align 4, !tbaa !11
  %24 = load ptr, ptr %5, align 8, !tbaa !3
  %25 = getelementptr inbounds nuw %struct.png_struct_def, ptr %24, i32 0, i32 63
  %26 = load i8, ptr %25, align 8, !tbaa !101
  store i8 %26, ptr %10, align 1, !tbaa !10
  br label %27

27:                                               ; preds = %19, %18
  %28 = load i32, ptr %7, align 4, !tbaa !11
  %29 = load i32, ptr %8, align 4, !tbaa !11
  %30 = icmp ne i32 %28, %29
  br i1 %30, label %31, label %36

31:                                               ; preds = %27
  %32 = load ptr, ptr %5, align 8, !tbaa !3
  %33 = load i32, ptr %7, align 4, !tbaa !11
  %34 = call i32 @png_crc_finish(ptr noundef %32, i32 noundef %33)
  %35 = load ptr, ptr %5, align 8, !tbaa !3
  call void @png_chunk_benign_error(ptr noundef %35, ptr noundef @.str.43)
  store i32 0, ptr %4, align 4
  store i32 1, ptr %12, align 4
  br label %135

36:                                               ; preds = %27
  %37 = load i8, ptr %10, align 1, !tbaa !10
  %38 = getelementptr inbounds [4 x i8], ptr %11, i64 0, i64 3
  store i8 %37, ptr %38, align 1, !tbaa !10
  %39 = getelementptr inbounds [4 x i8], ptr %11, i64 0, i64 2
  store i8 %37, ptr %39, align 1, !tbaa !10
  %40 = getelementptr inbounds [4 x i8], ptr %11, i64 0, i64 1
  store i8 %37, ptr %40, align 1, !tbaa !10
  %41 = getelementptr inbounds [4 x i8], ptr %11, i64 0, i64 0
  store i8 %37, ptr %41, align 1, !tbaa !10
  %42 = load ptr, ptr %5, align 8, !tbaa !3
  %43 = getelementptr inbounds [4 x i8], ptr %11, i64 0, i64 0
  %44 = load i32, ptr %8, align 4, !tbaa !11
  call void @png_crc_read(ptr noundef %42, ptr noundef %43, i32 noundef %44)
  %45 = load ptr, ptr %5, align 8, !tbaa !3
  %46 = call i32 @png_crc_finish(ptr noundef %45, i32 noundef 0)
  %47 = icmp ne i32 %46, 0
  br i1 %47, label %48, label %49

48:                                               ; preds = %36
  store i32 0, ptr %4, align 4
  store i32 1, ptr %12, align 4
  br label %135

49:                                               ; preds = %36
  store i32 0, ptr %9, align 4, !tbaa !11
  br label %50

50:                                               ; preds = %73, %49
  %51 = load i32, ptr %9, align 4, !tbaa !11
  %52 = load i32, ptr %8, align 4, !tbaa !11
  %53 = icmp ult i32 %51, %52
  br i1 %53, label %54, label %76

54:                                               ; preds = %50
  %55 = load i32, ptr %9, align 4, !tbaa !11
  %56 = zext i32 %55 to i64
  %57 = getelementptr inbounds nuw [4 x i8], ptr %11, i64 0, i64 %56
  %58 = load i8, ptr %57, align 1, !tbaa !10
  %59 = zext i8 %58 to i32
  %60 = icmp eq i32 %59, 0
  br i1 %60, label %70, label %61

61:                                               ; preds = %54
  %62 = load i32, ptr %9, align 4, !tbaa !11
  %63 = zext i32 %62 to i64
  %64 = getelementptr inbounds nuw [4 x i8], ptr %11, i64 0, i64 %63
  %65 = load i8, ptr %64, align 1, !tbaa !10
  %66 = zext i8 %65 to i32
  %67 = load i8, ptr %10, align 1, !tbaa !10
  %68 = zext i8 %67 to i32
  %69 = icmp sgt i32 %66, %68
  br i1 %69, label %70, label %72

70:                                               ; preds = %61, %54
  %71 = load ptr, ptr %5, align 8, !tbaa !3
  call void @png_chunk_benign_error(ptr noundef %71, ptr noundef @.str.30)
  store i32 0, ptr %4, align 4
  store i32 1, ptr %12, align 4
  br label %135

72:                                               ; preds = %61
  br label %73

73:                                               ; preds = %72
  %74 = load i32, ptr %9, align 4, !tbaa !11
  %75 = add i32 %74, 1
  store i32 %75, ptr %9, align 4, !tbaa !11
  br label %50, !llvm.loop !167

76:                                               ; preds = %50
  %77 = load ptr, ptr %5, align 8, !tbaa !3
  %78 = getelementptr inbounds nuw %struct.png_struct_def, ptr %77, i32 0, i32 62
  %79 = load i8, ptr %78, align 1, !tbaa !102
  %80 = zext i8 %79 to i32
  %81 = and i32 %80, 2
  %82 = icmp ne i32 %81, 0
  br i1 %82, label %83, label %104

83:                                               ; preds = %76
  %84 = getelementptr inbounds [4 x i8], ptr %11, i64 0, i64 0
  %85 = load i8, ptr %84, align 1, !tbaa !10
  %86 = load ptr, ptr %5, align 8, !tbaa !3
  %87 = getelementptr inbounds nuw %struct.png_struct_def, ptr %86, i32 0, i32 92
  %88 = getelementptr inbounds nuw %struct.png_color_8_struct, ptr %87, i32 0, i32 0
  store i8 %85, ptr %88, align 8, !tbaa !168
  %89 = getelementptr inbounds [4 x i8], ptr %11, i64 0, i64 1
  %90 = load i8, ptr %89, align 1, !tbaa !10
  %91 = load ptr, ptr %5, align 8, !tbaa !3
  %92 = getelementptr inbounds nuw %struct.png_struct_def, ptr %91, i32 0, i32 92
  %93 = getelementptr inbounds nuw %struct.png_color_8_struct, ptr %92, i32 0, i32 1
  store i8 %90, ptr %93, align 1, !tbaa !169
  %94 = getelementptr inbounds [4 x i8], ptr %11, i64 0, i64 2
  %95 = load i8, ptr %94, align 1, !tbaa !10
  %96 = load ptr, ptr %5, align 8, !tbaa !3
  %97 = getelementptr inbounds nuw %struct.png_struct_def, ptr %96, i32 0, i32 92
  %98 = getelementptr inbounds nuw %struct.png_color_8_struct, ptr %97, i32 0, i32 2
  store i8 %95, ptr %98, align 2, !tbaa !170
  %99 = getelementptr inbounds [4 x i8], ptr %11, i64 0, i64 3
  %100 = load i8, ptr %99, align 1, !tbaa !10
  %101 = load ptr, ptr %5, align 8, !tbaa !3
  %102 = getelementptr inbounds nuw %struct.png_struct_def, ptr %101, i32 0, i32 92
  %103 = getelementptr inbounds nuw %struct.png_color_8_struct, ptr %102, i32 0, i32 4
  store i8 %100, ptr %103, align 4, !tbaa !171
  br label %130

104:                                              ; preds = %76
  %105 = getelementptr inbounds [4 x i8], ptr %11, i64 0, i64 0
  %106 = load i8, ptr %105, align 1, !tbaa !10
  %107 = load ptr, ptr %5, align 8, !tbaa !3
  %108 = getelementptr inbounds nuw %struct.png_struct_def, ptr %107, i32 0, i32 92
  %109 = getelementptr inbounds nuw %struct.png_color_8_struct, ptr %108, i32 0, i32 3
  store i8 %106, ptr %109, align 1, !tbaa !172
  %110 = getelementptr inbounds [4 x i8], ptr %11, i64 0, i64 0
  %111 = load i8, ptr %110, align 1, !tbaa !10
  %112 = load ptr, ptr %5, align 8, !tbaa !3
  %113 = getelementptr inbounds nuw %struct.png_struct_def, ptr %112, i32 0, i32 92
  %114 = getelementptr inbounds nuw %struct.png_color_8_struct, ptr %113, i32 0, i32 0
  store i8 %111, ptr %114, align 8, !tbaa !168
  %115 = getelementptr inbounds [4 x i8], ptr %11, i64 0, i64 0
  %116 = load i8, ptr %115, align 1, !tbaa !10
  %117 = load ptr, ptr %5, align 8, !tbaa !3
  %118 = getelementptr inbounds nuw %struct.png_struct_def, ptr %117, i32 0, i32 92
  %119 = getelementptr inbounds nuw %struct.png_color_8_struct, ptr %118, i32 0, i32 1
  store i8 %116, ptr %119, align 1, !tbaa !169
  %120 = getelementptr inbounds [4 x i8], ptr %11, i64 0, i64 0
  %121 = load i8, ptr %120, align 1, !tbaa !10
  %122 = load ptr, ptr %5, align 8, !tbaa !3
  %123 = getelementptr inbounds nuw %struct.png_struct_def, ptr %122, i32 0, i32 92
  %124 = getelementptr inbounds nuw %struct.png_color_8_struct, ptr %123, i32 0, i32 2
  store i8 %121, ptr %124, align 2, !tbaa !170
  %125 = getelementptr inbounds [4 x i8], ptr %11, i64 0, i64 1
  %126 = load i8, ptr %125, align 1, !tbaa !10
  %127 = load ptr, ptr %5, align 8, !tbaa !3
  %128 = getelementptr inbounds nuw %struct.png_struct_def, ptr %127, i32 0, i32 92
  %129 = getelementptr inbounds nuw %struct.png_color_8_struct, ptr %128, i32 0, i32 4
  store i8 %126, ptr %129, align 4, !tbaa !171
  br label %130

130:                                              ; preds = %104, %83
  %131 = load ptr, ptr %5, align 8, !tbaa !3
  %132 = load ptr, ptr %6, align 8, !tbaa !13
  %133 = load ptr, ptr %5, align 8, !tbaa !3
  %134 = getelementptr inbounds nuw %struct.png_struct_def, ptr %133, i32 0, i32 92
  call void @png_set_sBIT(ptr noundef %131, ptr noundef %132, ptr noundef %134)
  store i32 3, ptr %4, align 4
  store i32 1, ptr %12, align 4
  br label %135

135:                                              ; preds = %130, %70, %48, %31
  call void @llvm.lifetime.end.p0(i64 4, ptr %11) #7
  call void @llvm.lifetime.end.p0(i64 1, ptr %10) #7
  call void @llvm.lifetime.end.p0(i64 4, ptr %9) #7
  call void @llvm.lifetime.end.p0(i64 4, ptr %8) #7
  %136 = load i32, ptr %4, align 4
  ret i32 %136
}