; Function Attrs: nounwind uwtable
define internal range(i32 0, 4) i32 @png_handle_sBIT(ptr noalias noundef %0, ptr noalias noundef %1, i32 noundef %2) #0 {
  %4 = alloca [4 x i8], align 1
  call void @llvm.lifetime.start.p0(i64 4, ptr nonnull %4) #12
  %5 = getelementptr inbounds nuw i8, ptr %0, i64 623
  %6 = load i8, ptr %5, align 1, !tbaa !124
  %7 = icmp eq i8 %6, 3
  br i1 %7, label %15, label %8

8:                                                ; preds = %3
  %9 = getelementptr inbounds nuw i8, ptr %0, i64 627
  %10 = load i8, ptr %9, align 1, !tbaa !141
  %11 = zext i8 %10 to i32
  %12 = getelementptr inbounds nuw i8, ptr %0, i64 624
  %13 = load i8, ptr %12, align 8, !tbaa !123
  %14 = freeze i8 %13
  br label %15

15:                                               ; preds = %3, %8
  %.033 = phi i32 [ %11, %8 ], [ 3, %3 ]
  %.0 = phi i8 [ %14, %8 ], [ 8, %3 ]
  %.not = icmp eq i32 %2, %.033
  br i1 %.not, label %png_crc_read.exit, label %16

16:                                               ; preds = %15
  %17 = tail call fastcc range(i32 0, 2) i32 @png_crc_finish_critical(ptr noundef nonnull %0, i32 noundef %2, i32 noundef 0)
  tail call void @png_chunk_benign_error(ptr noundef nonnull %0, ptr noundef nonnull @.str.43) #12
  br label %43

png_crc_read.exit:                                ; preds = %15
  %18 = getelementptr inbounds nuw i8, ptr %4, i64 3
  %19 = getelementptr inbounds nuw i8, ptr %4, i64 2
  %20 = getelementptr inbounds nuw i8, ptr %4, i64 1
  %21 = zext nneg i32 %2 to i64
  call void @llvm.memset.p0.i64(ptr noundef nonnull align 1 dereferenceable(4) %4, i8 %.0, i64 4, i1 false)
  call void @png_read_data(ptr noundef nonnull %0, ptr noundef nonnull %4, i64 noundef %21) #12
  call void @png_calculate_crc(ptr noundef nonnull %0, ptr noundef nonnull %4, i64 noundef %21) #12
  %22 = call fastcc range(i32 0, 2) i32 @png_crc_finish_critical(ptr noundef nonnull %0, i32 noundef 0, i32 noundef 0)
  %.not37 = icmp eq i32 %22, 0
  br i1 %.not37, label %.preheader, label %43

.preheader:                                       ; preds = %png_crc_read.exit
  %.not40 = icmp eq i32 %2, 0
  br i1 %.not40, label %._crit_edge, label %.lr.ph

23:                                               ; preds = %.lr.ph
  %indvars.iv.next = add nuw nsw i64 %indvars.iv, 1
  %exitcond.not = icmp eq i64 %indvars.iv.next, %21
  br i1 %exitcond.not, label %._crit_edge, label %.lr.ph, !llvm.loop !196

.lr.ph:                                           ; preds = %.preheader, %23
  %indvars.iv = phi i64 [ %indvars.iv.next, %23 ], [ 0, %.preheader ]
  %24 = getelementptr inbounds nuw [4 x i8], ptr %4, i64 0, i64 %indvars.iv
  %25 = load i8, ptr %24, align 1, !tbaa !3
  %26 = add i8 %25, -1
  %or.cond.not = icmp ult i8 %26, %.0
  br i1 %or.cond.not, label %23, label %27

27:                                               ; preds = %.lr.ph
  call void @png_chunk_benign_error(ptr noundef nonnull %0, ptr noundef nonnull @.str.30) #12
  br label %43

._crit_edge:                                      ; preds = %23, %.preheader
  %28 = load i8, ptr %5, align 1, !tbaa !124
  %29 = and i8 %28, 2
  %.not38 = icmp eq i8 %29, 0
  %30 = load i8, ptr %4, align 1, !tbaa !3
  br i1 %.not38, label %35, label %31

31:                                               ; preds = %._crit_edge
  %32 = load i8, ptr %20, align 1, !tbaa !3
  %33 = load i8, ptr %19, align 1, !tbaa !3
  %34 = load i8, ptr %18, align 1, !tbaa !3
  br label %38

35:                                               ; preds = %._crit_edge
  %36 = getelementptr inbounds nuw i8, ptr %0, i64 787
  store i8 %30, ptr %36, align 1, !tbaa !197
  %37 = load i8, ptr %20, align 1, !tbaa !3
  br label %38

38:                                               ; preds = %35, %31
  %.sink43 = phi i8 [ %30, %35 ], [ %32, %31 ]
  %.sink42 = phi i8 [ %30, %35 ], [ %33, %31 ]
  %.sink = phi i8 [ %37, %35 ], [ %34, %31 ]
  %39 = getelementptr inbounds nuw i8, ptr %0, i64 784
  store i8 %30, ptr %39, align 8, !tbaa !198
  %40 = getelementptr inbounds nuw i8, ptr %0, i64 785
  store i8 %.sink43, ptr %40, align 1, !tbaa !199
  %41 = getelementptr inbounds nuw i8, ptr %0, i64 786
  store i8 %.sink42, ptr %41, align 2, !tbaa !200
  %42 = getelementptr inbounds nuw i8, ptr %0, i64 788
  store i8 %.sink, ptr %42, align 4, !tbaa !201
  call void @png_set_sBIT(ptr noundef nonnull %0, ptr noundef %1, ptr noundef nonnull %39) #12
  br label %43

43:                                               ; preds = %png_crc_read.exit, %38, %27, %16
  %.034 = phi i32 [ 0, %16 ], [ 0, %27 ], [ 3, %38 ], [ 0, %png_crc_read.exit ]
  call void @llvm.lifetime.end.p0(i64 4, ptr nonnull %4) #12
  ret i32 %.034
}